Certificate:
    Data:
        Version: 3 (0x2)
        Serial Number: 1096 (0x448)
    Signature Algorithm: sha1WithRSAEncryption
        Issuer: C=DE, ST=Franconia, L=Nuremberg, O=SUSE Linux Products GmbH, OU=OPS Services, CN=SUSE CA openvpn/emailAddress=rd-adm@suse.de
        Validity
            Not Before: May 19 21:52:30 2020 GMT
            Not After : May 17 21:52:30 2030 GMT
        Subject: C=DE, ST=Bavaria, L=Nuremberg, O=SUSE Linux GmbH, OU=PBU, CN=xgwang/emailAddress=xgwang@suse.de
        Subject Public Key Info:
            Public Key Algorithm: rsaEncryption
                Public-Key: (2048 bit)
                Modulus:
                    00:bf:1d:55:61:f7:d7:39:15:c6:6d:78:b5:0c:e2:
                    e6:1b:6b:bd:b6:af:08:cc:5c:43:f4:ad:e6:7d:2b:
                    75:c4:7f:56:be:93:0e:ff:f0:0a:90:ef:cb:0c:cf:
                    fa:70:75:1c:95:81:af:99:c4:f2:2c:77:81:1f:a7:
                    0e:33:36:cc:85:98:ef:13:9f:96:5f:8f:b7:31:20:
                    87:5b:73:80:03:f6:71:1d:e2:6a:24:3d:2a:c3:14:
                    0c:67:04:0d:f6:dc:c5:e7:b2:dc:ad:58:10:d9:13:
                    68:90:db:ac:52:17:01:cf:db:94:3d:f7:49:4d:c5:
                    9b:26:e5:58:1b:12:72:43:29:3b:94:60:6b:ed:5b:
                    20:7b:6c:8e:33:fc:1f:b0:cd:f6:e6:3e:d3:6f:51:
                    cf:58:67:76:aa:53:2d:a1:9d:0c:03:26:ad:5e:2c:
                    c6:f6:87:cc:29:7f:da:5e:ba:e9:dc:8f:a1:42:be:
                    79:28:3e:2d:1b:21:b2:db:58:a7:df:22:59:22:45:
                    24:65:ff:c0:3f:cc:58:8c:5b:ea:95:f0:de:bd:46:
                    ed:99:47:f1:25:db:42:ad:46:a7:57:9d:03:25:7a:
                    8f:4b:c4:82:d2:25:2a:e2:bd:03:46:b8:7a:62:f6:
                    70:8f:dd:f0:a4:e8:57:5f:a0:aa:ce:47:a2:38:0e:
                    d6:8d
                Exponent: 65537 (0x10001)
        X509v3 extensions:
            X509v3 Basic Constraints: 
                CA:FALSE
            Netscape Comment: 
                Easy-RSA Generated Certificate
            X509v3 Subject Key Identifier: 
                0B:27:F9:8C:C8:91:C9:E9:4C:62:63:DB:1F:61:32:69:4A:BD:35:76
            X509v3 Authority Key Identifier: 
                keyid:BF:80:E1:B6:69:69:88:56:E9:3A:F6:1B:1D:FD:17:A0:06:91:05:01
                DirName:/C=DE/ST=Franconia/L=Nuremberg/O=SUSE Linux Products GmbH/OU=OPS Services/CN=SUSE CA Root/emailAddress=rd-adm@suse.de
                serial:07

            X509v3 Extended Key Usage: 
                TLS Web Client Authentication
            X509v3 Key Usage: 
                Digital Signature
    Signature Algorithm: sha1WithRSAEncryption
         85:b3:32:7f:bc:2e:19:30:f0:6d:1b:a6:e4:e9:1f:9c:b3:2b:
         ca:a3:db:7a:f0:cd:39:bd:b0:30:94:6d:5d:b9:7d:ef:e8:89:
         c5:1c:65:84:9e:2a:d8:67:ef:71:67:40:42:88:2a:d4:88:0d:
         9f:91:ef:f9:9b:35:41:ad:61:cb:69:f7:15:de:7b:3a:52:45:
         69:27:d5:e6:75:21:b2:99:b4:a0:96:c3:ce:25:e4:04:0a:da:
         42:f9:ea:62:b5:d3:88:8a:3c:41:4a:18:a2:31:01:37:b3:ab:
         ed:7f:fd:d6:01:6f:b5:aa:9a:9b:96:08:c5:b8:ef:fe:8d:d6:
         7f:aa:a0:0d:d2:02:02:53:96:a0:bb:49:7d:40:97:04:5b:fb:
         5f:c2:39:d0:a4:a4:a0:46:0e:0f:4c:8f:76:fe:2d:53:a6:27:
         8b:0c:9c:d3:d3:68:f1:93:f9:98:a1:8b:04:ec:fd:09:aa:cb:
         d8:79:da:ef:6f:f7:bd:74:86:a6:43:98:36:91:4e:d4:8b:b8:
         67:63:27:b2:b3:c5:32:82:93:69:a5:69:b3:6b:b5:d8:cc:5d:
         bd:bf:bc:36:59:51:c8:8c:49:6c:c4:52:0a:da:3c:43:58:29:
         a1:72:4e:81:18:e2:5a:45:2f:dc:e4:d5:35:a6:62:c2:54:8e:
         8d:44:75:17
-----BEGIN CERTIFICATE-----
MIIFBzCCA++gAwIBAgICBEgwDQYJKoZIhvcNAQEFBQAwgagxCzAJBgNVBAYTAkRF
MRIwEAYDVQQIEwlGcmFuY29uaWExEjAQBgNVBAcTCU51cmVtYmVyZzEhMB8GA1UE
ChMYU1VTRSBMaW51eCBQcm9kdWN0cyBHbWJIMRUwEwYDVQQLEwxPUFMgU2Vydmlj
ZXMxGDAWBgNVBAMTD1NVU0UgQ0Egb3BlbnZwbjEdMBsGCSqGSIb3DQEJARYOcmQt
YWRtQHN1c2UuZGUwHhcNMjAwNTE5MjE1MjMwWhcNMzAwNTE3MjE1MjMwWjCBizEL
MAkGA1UEBhMCREUxEDAOBgNVBAgTB0JhdmFyaWExEjAQBgNVBAcTCU51cmVtYmVy
ZzEYMBYGA1UEChMPU1VTRSBMaW51eCBHbWJIMQwwCgYDVQQLEwNQQlUxDzANBgNV
BAMTBnhnd2FuZzEdMBsGCSqGSIb3DQEJARYOeGd3YW5nQHN1c2UuZGUwggEiMA0G
CSqGSIb3DQEBAQUAA4IBDwAwggEKAoIBAQC/HVVh99c5FcZteLUM4uYba722rwjM
XEP0reZ9K3XEf1a+kw7/8AqQ78sMz/pwdRyVga+ZxPIsd4Efpw4zNsyFmO8Tn5Zf
j7cxIIdbc4AD9nEd4mokPSrDFAxnBA323MXnstytWBDZE2iQ26xSFwHP25Q990lN
xZsm5VgbEnJDKTuUYGvtWyB7bI4z/B+wzfbmPtNvUc9YZ3aqUy2hnQwDJq1eLMb2
h8wpf9peuuncj6FCvnkoPi0bIbLbWKffIlkiRSRl/8A/zFiMW+qV8N69Ru2ZR/El
20KtRqdXnQMleo9LxILSJSrivQNGuHpi9nCP3fCk6FdfoKrOR6I4DtaNAgMBAAGj
ggFUMIIBUDAJBgNVHRMEAjAAMC0GCWCGSAGG+EIBDQQgFh5FYXN5LVJTQSBHZW5l
cmF0ZWQgQ2VydGlmaWNhdGUwHQYDVR0OBBYEFAsn+YzIkcnpTGJj2x9hMmlKvTV2
MIHSBgNVHSMEgcowgceAFL+A4bZpaYhW6Tr2Gx39F6AGkQUBoYGrpIGoMIGlMQsw
CQYDVQQGEwJERTESMBAGA1UECBMJRnJhbmNvbmlhMRIwEAYDVQQHEwlOdXJlbWJl
cmcxITAfBgNVBAoTGFNVU0UgTGludXggUHJvZHVjdHMgR21iSDEVMBMGA1UECxMM
T1BTIFNlcnZpY2VzMRUwEwYDVQQDEwxTVVNFIENBIFJvb3QxHTAbBgkqhkiG9w0B
CQEWDnJkLWFkbUBzdXNlLmRlggEHMBMGA1UdJQQMMAoGCCsGAQUFBwMCMAsGA1Ud
DwQEAwIHgDANBgkqhkiG9w0BAQUFAAOCAQEAhbMyf7wuGTDwbRum5OkfnLMryqPb
evDNOb2wMJRtXbl97+iJxRxlhJ4q2GfvcWdAQogq1IgNn5Hv+Zs1Qa1hy2n3Fd57
OlJFaSfV5nUhspm0oJbDziXkBAraQvnqYrXTiIo8QUoYojEBN7Or7X/91gFvtaqa
m5YIxbjv/o3Wf6qgDdICAlOWoLtJfUCXBFv7X8I50KSkoEYOD0yPdv4tU6Yniwyc
09No8ZP5mKGLBOz9CarL2Hna72/3vXSGpkOYNpFO1Iu4Z2MnsrPFMoKTaaVps2u1
2Mxdvb+8NllRyIxJbMRSCto8Q1gpoXJOgRjiWkUv3OTVNaZiwlSOjUR1Fw==
-----END CERTIFICATE-----
